target datalayout = "e-m:e-p270:32:32-p271:32:32-p272:64:64-i64:64-i128:128-f80:128-n8:16:32:64-S128"
target triple = "x86_64-unknown-linux-gnu"

; Function Attrs: mustprogress nounwind uwtable
define noundef i32 @_ZN3re216RepetitionWalker9PostVisitEPNS_6RegexpEiiPii(ptr noundef nonnull align 8 dereferenceable(96) %this, ptr noundef %re, i32 noundef %parent_arg, i32 noundef %pre_arg, ptr noundef %child_args, i32 noundef %nchild_args) unnamed_addr #0 align 2 {
entry:
  %this.addr = alloca ptr, align 8
  %re.addr = alloca ptr, align 8
  %parent_arg.addr = alloca i32, align 4
  %pre_arg.addr = alloca i32, align 4
  %child_args.addr = alloca ptr, align 8
  %nchild_args.addr = alloca i32, align 4
  %arg = alloca i32, align 4
  %i = alloca i32, align 4
  store ptr %this, ptr %this.addr, align 8
  store ptr %re, ptr %re.addr, align 8
  store i32 %parent_arg, ptr %parent_arg.addr, align 4
  store i32 %pre_arg, ptr %pre_arg.addr, align 4
  store ptr %child_args, ptr %child_args.addr, align 8
  store i32 %nchild_args, ptr %nchild_args.addr, align 4
  %0 = load i32, ptr %pre_arg.addr, align 4
  store i32 %0, ptr %arg, align 4
  store i32 0, ptr %i, align 4
  br label %for.cond

for.cond:                                         ; preds = %for.inc, %entry
  %1 = load i32, ptr %i, align 4
  %2 = load i32, ptr %nchild_args.addr, align 4
  %cmp = icmp slt i32 %1, %2
  br i1 %cmp, label %for.body, label %for.end

for.body:                                         ; preds = %for.cond
  %3 = load ptr, ptr %child_args.addr, align 8
  %4 = load i32, ptr %i, align 4
  %idxprom = sext i32 %4 to i64
  %arrayidx = getelementptr inbounds i32, ptr %3, i64 %idxprom
  %5 = load i32, ptr %arrayidx, align 4
  %6 = load i32, ptr %arg, align 4
  %cmp2 = icmp slt i32 %5, %6
  br i1 %cmp2, label %if.then, label %if.end

if.then:                                          ; preds = %for.body
  %7 = load ptr, ptr %child_args.addr, align 8
  %8 = load i32, ptr %i, align 4
  %idxprom3 = sext i32 %8 to i64
  %arrayidx4 = getelementptr inbounds i32, ptr %7, i64 %idxprom3
  %9 = load i32, ptr %arrayidx4, align 4
  store i32 %9, ptr %arg, align 4
  br label %if.end

if.end:                                           ; preds = %if.then, %for.body
  br label %for.inc

for.inc:                                          ; preds = %if.end
  %10 = load i32, ptr %i, align 4
  %inc = add nsw i32 %10, 1
  store i32 %inc, ptr %i, align 4
  br label %for.cond, !llvm.loop !9

for.end:                                          ; preds = %for.cond
  %11 = load i32, ptr %arg, align 4
  ret i32 %11
}