; Function Attrs: mustprogress nofree norecurse nosync nounwind willreturn memory(argmem: read) uwtable
define noundef i32 @_ZN3re216RepetitionWalker9PostVisitEPNS_6RegexpEiiPii(ptr nocapture nonnull readnone align 8 %this, ptr nocapture readnone %re, i32 %parent_arg, i32 noundef %pre_arg, ptr nocapture noundef readonly %child_args, i32 noundef %nchild_args) unnamed_addr #12 align 2 {
entry:
  %cmp6 = icmp sgt i32 %nchild_args, 0
  br i1 %cmp6, label %for.body.preheader, label %for.end

for.body.preheader:                               ; preds = %entry
  %wide.trip.count = zext nneg i32 %nchild_args to i64
  br label %for.body

for.body:                                         ; preds = %for.body.preheader, %for.body
  %indvars.iv = phi i64 [ 0, %for.body.preheader ], [ %indvars.iv.next, %for.body ]
  %arg.07 = phi i32 [ %pre_arg, %for.body.preheader ], [ %spec.select, %for.body ]
  %arrayidx = getelementptr inbounds i32, ptr %child_args, i64 %indvars.iv
  %0 = load i32, ptr %arrayidx, align 4
  %spec.select = tail call i32 @llvm.smin.i32(i32 %0, i32 %arg.07)
  %indvars.iv.next = add nuw nsw i64 %indvars.iv, 1
  %exitcond.not = icmp eq i64 %indvars.iv.next, %wide.trip.count
  br i1 %exitcond.not, label %for.end, label %for.body, !llvm.loop !9

for.end:                                          ; preds = %for.body, %entry
  %arg.0.lcssa = phi i32 [ %pre_arg, %entry ], [ %spec.select, %for.body ]
  ret i32 %arg.0.lcssa
}